target datalayout = "e-m:e-p270:32:32-p271:32:32-p272:64:64-i64:64-i128:128-f80:128-n8:16:32:64-S128"
target triple = "x86_64-pc-linux-gnu"

%struct.slurm_opt_t = type { ptr, ptr, ptr, ptr, ptr, ptr, ptr, ptr, i32, ptr, ptr, ptr, ptr, i32, i32, ptr, i32, i8, i8, i32, i8, i32, i32, ptr, i8, i32, i32, i64, i32, i32, i32, i32, i32, i32, ptr, i32, ptr, i8, i32, i32, ptr, i32, i32, i32, ptr, ptr, i32, i32, ptr, ptr, ptr, i32, i16, i16, i16, i8, i8, ptr, i8, i16, ptr, ptr, i32, i32, i32, ptr, ptr, ptr, ptr, ptr, ptr, i32, i64, i64, i64, i16, i64, ptr, ptr, ptr, ptr, ptr, ptr, ptr, i8, ptr, ptr, ptr, ptr, i8, i64, ptr, i16, ptr, i32, i32, ptr, ptr, i32, i32, i32, ptr, i32, i32, i32, i32, i32, ptr, i64, i32, i16, i32, ptr, ptr, ptr, ptr, ptr, i16, ptr, ptr, i16, i8, ptr, ptr, ptr, ptr }
%struct.resource_allocation_response_msg = type { ptr, i32, ptr, i32, i32, i32, ptr, ptr, i32, ptr, i32, i32, ptr, ptr, i32, ptr, i16, i16, i16, i16, i32, ptr, i64, ptr, ptr, ptr, ptr, i32, ptr, ptr }

@opt = external global %struct.slurm_opt_t, align 8
@.str.51 = private unnamed_addr constant [1 x i8] zeroinitializer, align 1
@.str.56 = private unnamed_addr constant [2 x i8] c",\00", align 1
@.str.66 = private unnamed_addr constant [39 x i8] c"jobid %u: nodes(%u):`%s', cpu counts: \00", align 1
@.str.67 = private unnamed_addr constant [10 x i8] c"%s%u(x%u)\00", align 1
@.str.68 = private unnamed_addr constant [3 x i8] c"%s\00", align 1

; Function Attrs: nounwind uwtable
define internal void @_print_job_information(ptr noundef %0) #0 {
  %2 = alloca ptr, align 8
  %3 = alloca i32, align 4
  %4 = alloca ptr, align 8
  %5 = alloca ptr, align 8
  %6 = alloca i32, align 4
  store ptr %0, ptr %2, align 8
  call void @llvm.lifetime.start.p0(i64 4, ptr %3) #10
  call void @llvm.lifetime.start.p0(i64 8, ptr %4) #10
  store ptr null, ptr %4, align 8
  call void @llvm.lifetime.start.p0(i64 8, ptr %5) #10
  store ptr @.str.51, ptr %5, align 8
  %7 = load i32, ptr getelementptr inbounds nuw (%struct.slurm_opt_t, ptr @opt, i32 0, i32 63), align 4
  %8 = icmp ne i32 %7, 0
  br i1 %8, label %10, label %9

9:                                                ; preds = %1
  store i32 1, ptr %6, align 4
  br label %58

10:                                               ; preds = %1
  %11 = load ptr, ptr %2, align 8
  %12 = getelementptr inbounds nuw %struct.resource_allocation_response_msg, ptr %11, i32 0, i32 1
  %13 = load i32, ptr %12, align 8
  %14 = load ptr, ptr %2, align 8
  %15 = getelementptr inbounds nuw %struct.resource_allocation_response_msg, ptr %14, i32 0, i32 14
  %16 = load i32, ptr %15, align 8
  %17 = load ptr, ptr %2, align 8
  %18 = getelementptr inbounds nuw %struct.resource_allocation_response_msg, ptr %17, i32 0, i32 15
  %19 = load ptr, ptr %18, align 8
  call void (ptr, ptr, ...) @_xstrfmtcat(ptr noundef %4, ptr noundef @.str.66, i32 noundef %13, i32 noundef %16, ptr noundef %19)
  store i32 0, ptr %3, align 4
  br label %20

20:                                               ; preds = %43, %10
  %21 = load i32, ptr %3, align 4
  %22 = load ptr, ptr %2, align 8
  %23 = getelementptr inbounds nuw %struct.resource_allocation_response_msg, ptr %22, i32 0, i32 20
  %24 = load i32, ptr %23, align 8
  %25 = icmp ult i32 %21, %24
  br i1 %25, label %26, label %46

26:                                               ; preds = %20
  %27 = load ptr, ptr %5, align 8
  %28 = load ptr, ptr %2, align 8
  %29 = getelementptr inbounds nuw %struct.resource_allocation_response_msg, ptr %28, i32 0, i32 6
  %30 = load ptr, ptr %29, align 8
  %31 = load i32, ptr %3, align 4
  %32 = sext i32 %31 to i64
  %33 = getelementptr inbounds i16, ptr %30, i64 %32
  %34 = load i16, ptr %33, align 2
  %35 = zext i16 %34 to i32
  %36 = load ptr, ptr %2, align 8
  %37 = getelementptr inbounds nuw %struct.resource_allocation_response_msg, ptr %36, i32 0, i32 7
  %38 = load ptr, ptr %37, align 8
  %39 = load i32, ptr %3, align 4
  %40 = sext i32 %39 to i64
  %41 = getelementptr inbounds i32, ptr %38, i64 %40
  %42 = load i32, ptr %41, align 4
  call void (ptr, ptr, ...) @_xstrfmtcat(ptr noundef %4, ptr noundef @.str.67, ptr noundef %27, i32 noundef %35, i32 noundef %42)
  store ptr @.str.56, ptr %5, align 8
  br label %43

43:                                               ; preds = %26
  %44 = load i32, ptr %3, align 4
  %45 = add nsw i32 %44, 1
  store i32 %45, ptr %3, align 4
  br label %20, !llvm.loop !27

46:                                               ; preds = %20
  br label %47

47:                                               ; preds = %46
  br label %48

48:                                               ; preds = %47
  %49 = call i32 @get_log_level()
  %50 = icmp sge i32 %49, 4
  br i1 %50, label %51, label %53

51:                                               ; preds = %48
  %52 = load ptr, ptr %4, align 8
  call void (i32, ptr, ...) @log_var(i32 noundef 4, ptr noundef @.str.68, ptr noundef %52)
  br label %53

53:                                               ; preds = %51, %48
  br label %54

54:                                               ; preds = %53
  br label %55

55:                                               ; preds = %54
  br label %56

56:                                               ; preds = %55
  br label %57

57:                                               ; preds = %56
  call void @slurm_xfree(ptr noundef %4)
  store i32 0, ptr %6, align 4
  br label %58

58:                                               ; preds = %57, %9
  call void @llvm.lifetime.end.p0(i64 8, ptr %5) #10
  call void @llvm.lifetime.end.p0(i64 8, ptr %4) #10
  call void @llvm.lifetime.end.p0(i64 4, ptr %3) #10
  %59 = load i32, ptr %6, align 4
  switch i32 %59, label %61 [
    i32 0, label %60
    i32 1, label %60
  ]

60:                                               ; preds = %58, %58
  ret void

61:                                               ; preds = %58
  unreachable
}