; Function Attrs: nounwind uwtable
define internal fastcc void @_print_job_information(ptr noundef nonnull readonly captures(none) %0) unnamed_addr #0 {
  %2 = alloca ptr, align 8
  call void @llvm.lifetime.start.p0(i64 8, ptr nonnull %2) #15
  store ptr null, ptr %2, align 8
  %3 = load i32, ptr getelementptr inbounds nuw (i8, ptr @opt, i64 364), align 4
  %.not = icmp eq i32 %3, 0
  br i1 %.not, label %31, label %4

4:                                                ; preds = %1
  %5 = getelementptr inbounds nuw i8, ptr %0, i64 8
  %6 = load i32, ptr %5, align 8
  %7 = getelementptr inbounds nuw i8, ptr %0, i64 96
  %8 = load i32, ptr %7, align 8
  %9 = getelementptr inbounds nuw i8, ptr %0, i64 104
  %10 = load ptr, ptr %9, align 8
  call void (ptr, ptr, ...) @_xstrfmtcat(ptr noundef nonnull %2, ptr noundef nonnull @.str.66, i32 noundef %6, i32 noundef %8, ptr noundef %10) #15
  %11 = getelementptr inbounds nuw i8, ptr %0, i64 120
  %12 = load i32, ptr %11, align 8
  %.not13 = icmp eq i32 %12, 0
  br i1 %.not13, label %._crit_edge, label %.lr.ph

.lr.ph:                                           ; preds = %4
  %13 = getelementptr inbounds nuw i8, ptr %0, i64 40
  %14 = getelementptr inbounds nuw i8, ptr %0, i64 48
  br label %15

15:                                               ; preds = %.lr.ph, %15
  %indvars.iv = phi i64 [ 0, %.lr.ph ], [ %indvars.iv.next, %15 ]
  %.012 = phi ptr [ @.str.51, %.lr.ph ], [ @.str.56, %15 ]
  %16 = load ptr, ptr %13, align 8
  %17 = getelementptr inbounds nuw i16, ptr %16, i64 %indvars.iv
  %18 = load i16, ptr %17, align 2
  %19 = zext i16 %18 to i32
  %20 = load ptr, ptr %14, align 8
  %21 = getelementptr inbounds nuw i32, ptr %20, i64 %indvars.iv
  %22 = load i32, ptr %21, align 4
  call void (ptr, ptr, ...) @_xstrfmtcat(ptr noundef nonnull %2, ptr noundef nonnull @.str.67, ptr noundef nonnull %.012, i32 noundef %19, i32 noundef %22) #15
  %indvars.iv.next = add nuw nsw i64 %indvars.iv, 1
  %23 = load i32, ptr %11, align 8
  %24 = zext i32 %23 to i64
  %25 = icmp samesign ult i64 %indvars.iv.next, %24
  br i1 %25, label %15, label %._crit_edge, !llvm.loop !33

._crit_edge:                                      ; preds = %15, %4
  %26 = call i32 @get_log_level() #15
  %27 = icmp sgt i32 %26, 3
  br i1 %27, label %28, label %30

28:                                               ; preds = %._crit_edge
  %29 = load ptr, ptr %2, align 8
  call void (i32, ptr, ...) @log_var(i32 noundef 4, ptr noundef nonnull @.str.68, ptr noundef %29) #15
  br label %30

30:                                               ; preds = %28, %._crit_edge
  call void @slurm_xfree(ptr noundef nonnull %2) #15
  br label %31

31:                                               ; preds = %1, %30
  call void @llvm.lifetime.end.p0(i64 8, ptr nonnull %2) #15
  ret void
}